; Function Attrs: mustprogress nounwind uwtable
define hidden void @_ZN33ShenandoahPeriodicPacerNotifyTask4taskEv(ptr nocapture noundef nonnull readonly align 8 dereferenceable(24) %0) unnamed_addr #0 align 2 {
  %2 = getelementptr inbounds i8, ptr %0, i64 16
  %3 = load ptr, ptr %2, align 8
  %4 = getelementptr inbounds i8, ptr %3, i64 96
  %5 = load volatile i8, ptr %4, align 1
  tail call void asm sideeffect "", "~{memory},~{dirflag},~{fpsr},~{flags}"() #8, !srcloc !8
  %6 = icmp eq i8 %5, 1
  br i1 %6, label %_ZN20ShenandoahSharedFlag9try_unsetEv.exit.i, label %_ZN15ShenandoahPacer14notify_waitersEv.exit

_ZN20ShenandoahSharedFlag9try_unsetEv.exit.i:     ; preds = %1
  %7 = tail call noundef i8 asm sideeffect "lock cmpxchgb $1,($3)", "={ax},q,{ax},r,~{cc},~{memory},~{dirflag},~{fpsr},~{flags}"(i8 0, i8 1, ptr nonnull %4) #8, !srcloc !9
  %8 = icmp eq i8 %7, 1
  br i1 %8, label %9, label %_ZN15ShenandoahPacer14notify_waitersEv.exit

9:                                                ; preds = %_ZN20ShenandoahSharedFlag9try_unsetEv.exit.i
  %10 = getelementptr inbounds i8, ptr %3, i64 24
  %11 = load ptr, ptr %10, align 8
  %.not.i.i.i = icmp eq ptr %11, null
  br i1 %.not.i.i.i, label %_ZN13MonitorLockerC2EP7MonitorN5Mutex18SafepointCheckFlagE.exit.thread.i, label %12

_ZN13MonitorLockerC2EP7MonitorN5Mutex18SafepointCheckFlagE.exit.thread.i: ; preds = %9
  tail call void @_ZN7Monitor10notify_allEv(ptr noundef nonnull align 8 dereferenceable(104) null) #8
  br label %_ZN15ShenandoahPacer14notify_waitersEv.exit

12:                                               ; preds = %9
  tail call void @_ZN5Mutex4lockEv(ptr noundef nonnull align 8 dereferenceable(104) %11) #8
  %13 = load ptr, ptr %10, align 8
  tail call void @_ZN7Monitor10notify_allEv(ptr noundef nonnull align 8 dereferenceable(104) %13) #8
  tail call void @_ZN5Mutex6unlockEv(ptr noundef nonnull align 8 dereferenceable(104) %11) #8
  br label %_ZN15ShenandoahPacer14notify_waitersEv.exit

_ZN15ShenandoahPacer14notify_waitersEv.exit:      ; preds = %1, %_ZN20ShenandoahSharedFlag9try_unsetEv.exit.i, %_ZN13MonitorLockerC2EP7MonitorN5Mutex18SafepointCheckFlagE.exit.thread.i, %12
  ret void
}